target datalayout = "e-m:e-p270:32:32-p271:32:32-p272:64:64-i64:64-i128:128-f80:128-n8:16:32:64-S128"
target triple = "x86_64-pc-linux-gnu"

%struct.pg_enc2name = type { ptr, i32 }

@.str.3 = private unnamed_addr constant [10 x i8] c"regress.c\00", align 1
@.str.30 = private unnamed_addr constant [56 x i8] c"official invalid string for encoding \22%s\22 has length %d\00", align 1
@pg_enc2name_tbl = external constant [0 x %struct.pg_enc2name], align 8
@__func__.test_enc_setup = private unnamed_addr constant [15 x i8] c"test_enc_setup\00", align 1
@.str.31 = private unnamed_addr constant [55 x i8] c"official invalid string for encoding \22%s\22 has mblen %d\00", align 1
@.str.32 = private unnamed_addr constant [72 x i8] c"official invalid string for encoding \22%s\22 has valid prefix of length %d\00", align 1
@.str.33 = private unnamed_addr constant [86 x i8] c"first byte of official invalid string for encoding \22%s\22 has valid prefix of length %d\00", align 1
@.str.34 = private unnamed_addr constant [98 x i8] c"trailing data changed official invalid string for encoding \22%s\22 to have valid prefix of length %d\00", align 1

; Function Attrs: nounwind uwtable
define i64 @test_enc_setup(ptr noundef %0) #0 {
  %2 = alloca ptr, align 8
  %3 = alloca i32, align 4
  %4 = alloca i32, align 4
  %5 = alloca [2 x i8], align 1
  %6 = alloca [16 x i8], align 16
  %7 = alloca i32, align 4
  %8 = alloca i32, align 4
  %9 = alloca i32, align 4
  store ptr %0, ptr %2, align 8
  call void @llvm.lifetime.start.p0(i64 4, ptr %3) #13
  store i32 0, ptr %3, align 4
  br label %10

10:                                               ; preds = %148, %1
  %11 = load i32, ptr %3, align 4
  %12 = icmp slt i32 %11, 42
  br i1 %12, label %14, label %13

13:                                               ; preds = %10
  store i32 2, ptr %4, align 4
  call void @llvm.lifetime.end.p0(i64 4, ptr %3) #13
  br label %151

14:                                               ; preds = %10
  call void @llvm.lifetime.start.p0(i64 2, ptr %5) #13
  call void @llvm.lifetime.start.p0(i64 16, ptr %6) #13
  call void @llvm.lifetime.start.p0(i64 4, ptr %7) #13
  call void @llvm.lifetime.start.p0(i64 4, ptr %8) #13
  call void @llvm.lifetime.start.p0(i64 4, ptr %9) #13
  %15 = load i32, ptr %3, align 4
  %16 = call i32 @pg_encoding_max_length(i32 noundef %15)
  %17 = icmp eq i32 %16, 1
  br i1 %17, label %18, label %19

18:                                               ; preds = %14
  store i32 4, ptr %4, align 4
  br label %145

19:                                               ; preds = %14
  %20 = load i32, ptr %3, align 4
  %21 = getelementptr inbounds [2 x i8], ptr %5, i64 0, i64 0
  call void @pg_encoding_set_invalid(i32 noundef %20, ptr noundef %21)
  %22 = getelementptr inbounds [2 x i8], ptr %5, i64 0, i64 0
  %23 = call i64 @strnlen(ptr noundef %22, i64 noundef 2) #15
  %24 = trunc i64 %23 to i32
  store i32 %24, ptr %7, align 4
  %25 = load i32, ptr %7, align 4
  %26 = icmp ne i32 %25, 2
  br i1 %26, label %27, label %44

27:                                               ; preds = %19
  br label %28

28:                                               ; preds = %27
  br i1 false, label %29, label %31

29:                                               ; preds = %28
  %30 = call zeroext i1 @errstart_cold(i32 noundef 19, ptr noundef null) #14
  br i1 %30, label %33, label %41

31:                                               ; preds = %28
  %32 = call zeroext i1 @errstart(i32 noundef 19, ptr noundef null)
  br i1 %32, label %33, label %41

33:                                               ; preds = %31, %29
  %34 = load i32, ptr %3, align 4
  %35 = sext i32 %34 to i64
  %36 = getelementptr inbounds [0 x %struct.pg_enc2name], ptr @pg_enc2name_tbl, i64 0, i64 %35
  %37 = getelementptr inbounds nuw %struct.pg_enc2name, ptr %36, i32 0, i32 0
  %38 = load ptr, ptr %37, align 8
  %39 = load i32, ptr %7, align 4
  %40 = call i32 (ptr, ...) @errmsg_internal(ptr noundef @.str.30, ptr noundef %38, i32 noundef %39)
  call void @errfinish(ptr noundef @.str.3, i32 noundef 1042, ptr noundef @__func__.test_enc_setup)
  br label %41

41:                                               ; preds = %33, %31, %29
  br label %42

42:                                               ; preds = %41
  br label %43

43:                                               ; preds = %42
  br label %44

44:                                               ; preds = %43, %19
  %45 = load i32, ptr %3, align 4
  %46 = getelementptr inbounds [2 x i8], ptr %5, i64 0, i64 0
  %47 = call i32 @pg_encoding_mblen(i32 noundef %45, ptr noundef %46)
  store i32 %47, ptr %8, align 4
  %48 = load i32, ptr %8, align 4
  %49 = icmp ne i32 %48, 2
  br i1 %49, label %50, label %67

50:                                               ; preds = %44
  br label %51

51:                                               ; preds = %50
  br i1 false, label %52, label %54

52:                                               ; preds = %51
  %53 = call zeroext i1 @errstart_cold(i32 noundef 19, ptr noundef null) #14
  br i1 %53, label %56, label %64

54:                                               ; preds = %51
  %55 = call zeroext i1 @errstart(i32 noundef 19, ptr noundef null)
  br i1 %55, label %56, label %64

56:                                               ; preds = %54, %52
  %57 = load i32, ptr %3, align 4
  %58 = sext i32 %57 to i64
  %59 = getelementptr inbounds [0 x %struct.pg_enc2name], ptr @pg_enc2name_tbl, i64 0, i64 %58
  %60 = getelementptr inbounds nuw %struct.pg_enc2name, ptr %59, i32 0, i32 0
  %61 = load ptr, ptr %60, align 8
  %62 = load i32, ptr %8, align 4
  %63 = call i32 (ptr, ...) @errmsg_internal(ptr noundef @.str.31, ptr noundef %61, i32 noundef %62)
  call void @errfinish(ptr noundef @.str.3, i32 noundef 1047, ptr noundef @__func__.test_enc_setup)
  br label %64

64:                                               ; preds = %56, %54, %52
  br label %65

65:                                               ; preds = %64
  br label %66

66:                                               ; preds = %65
  br label %67

67:                                               ; preds = %66, %44
  %68 = load i32, ptr %3, align 4
  %69 = getelementptr inbounds [2 x i8], ptr %5, i64 0, i64 0
  %70 = load i32, ptr %7, align 4
  %71 = call i32 @pg_encoding_verifymbstr(i32 noundef %68, ptr noundef %69, i32 noundef %70)
  store i32 %71, ptr %9, align 4
  %72 = load i32, ptr %9, align 4
  %73 = icmp ne i32 %72, 0
  br i1 %73, label %74, label %91

74:                                               ; preds = %67
  br label %75

75:                                               ; preds = %74
  br i1 false, label %76, label %78

76:                                               ; preds = %75
  %77 = call zeroext i1 @errstart_cold(i32 noundef 19, ptr noundef null) #14
  br i1 %77, label %80, label %88

78:                                               ; preds = %75
  %79 = call zeroext i1 @errstart(i32 noundef 19, ptr noundef null)
  br i1 %79, label %80, label %88

80:                                               ; preds = %78, %76
  %81 = load i32, ptr %3, align 4
  %82 = sext i32 %81 to i64
  %83 = getelementptr inbounds [0 x %struct.pg_enc2name], ptr @pg_enc2name_tbl, i64 0, i64 %82
  %84 = getelementptr inbounds nuw %struct.pg_enc2name, ptr %83, i32 0, i32 0
  %85 = load ptr, ptr %84, align 8
  %86 = load i32, ptr %9, align 4
  %87 = call i32 (ptr, ...) @errmsg_internal(ptr noundef @.str.32, ptr noundef %85, i32 noundef %86)
  call void @errfinish(ptr noundef @.str.3, i32 noundef 1052, ptr noundef @__func__.test_enc_setup)
  br label %88

88:                                               ; preds = %80, %78, %76
  br label %89

89:                                               ; preds = %88
  br label %90

90:                                               ; preds = %89
  br label %91

91:                                               ; preds = %90, %67
  %92 = load i32, ptr %3, align 4
  %93 = getelementptr inbounds [2 x i8], ptr %5, i64 0, i64 0
  %94 = call i32 @pg_encoding_verifymbstr(i32 noundef %92, ptr noundef %93, i32 noundef 1)
  store i32 %94, ptr %9, align 4
  %95 = load i32, ptr %9, align 4
  %96 = icmp ne i32 %95, 0
  br i1 %96, label %97, label %114

97:                                               ; preds = %91
  br label %98

98:                                               ; preds = %97
  br i1 false, label %99, label %101

99:                                               ; preds = %98
  %100 = call zeroext i1 @errstart_cold(i32 noundef 19, ptr noundef null) #14
  br i1 %100, label %103, label %111

101:                                              ; preds = %98
  %102 = call zeroext i1 @errstart(i32 noundef 19, ptr noundef null)
  br i1 %102, label %103, label %111

103:                                              ; preds = %101, %99
  %104 = load i32, ptr %3, align 4
  %105 = sext i32 %104 to i64
  %106 = getelementptr inbounds [0 x %struct.pg_enc2name], ptr @pg_enc2name_tbl, i64 0, i64 %105
  %107 = getelementptr inbounds nuw %struct.pg_enc2name, ptr %106, i32 0, i32 0
  %108 = load ptr, ptr %107, align 8
  %109 = load i32, ptr %9, align 4
  %110 = call i32 (ptr, ...) @errmsg_internal(ptr noundef @.str.33, ptr noundef %108, i32 noundef %109)
  call void @errfinish(ptr noundef @.str.3, i32 noundef 1057, ptr noundef @__func__.test_enc_setup)
  br label %111

111:                                              ; preds = %103, %101, %99
  br label %112

112:                                              ; preds = %111
  br label %113

113:                                              ; preds = %112
  br label %114

114:                                              ; preds = %113, %91
  %115 = getelementptr inbounds [16 x i8], ptr %6, i64 0, i64 0
  call void @llvm.memset.p0.i64(ptr align 16 %115, i8 32, i64 16, i1 false)
  %116 = getelementptr inbounds [2 x i8], ptr %5, i64 0, i64 0
  %117 = load i8, ptr %116, align 1
  %118 = getelementptr inbounds [16 x i8], ptr %6, i64 0, i64 0
  store i8 %117, ptr %118, align 16
  %119 = getelementptr inbounds [2 x i8], ptr %5, i64 0, i64 1
  %120 = load i8, ptr %119, align 1
  %121 = getelementptr inbounds [16 x i8], ptr %6, i64 0, i64 1
  store i8 %120, ptr %121, align 1
  %122 = load i32, ptr %3, align 4
  %123 = getelementptr inbounds [16 x i8], ptr %6, i64 0, i64 0
  %124 = call i32 @pg_encoding_verifymbstr(i32 noundef %122, ptr noundef %123, i32 noundef 16)
  store i32 %124, ptr %9, align 4
  %125 = load i32, ptr %9, align 4
  %126 = icmp ne i32 %125, 0
  br i1 %126, label %127, label %144

127:                                              ; preds = %114
  br label %128

128:                                              ; preds = %127
  br i1 false, label %129, label %131

129:                                              ; preds = %128
  %130 = call zeroext i1 @errstart_cold(i32 noundef 19, ptr noundef null) #14
  br i1 %130, label %133, label %141

131:                                              ; preds = %128
  %132 = call zeroext i1 @errstart(i32 noundef 19, ptr noundef null)
  br i1 %132, label %133, label %141

133:                                              ; preds = %131, %129
  %134 = load i32, ptr %3, align 4
  %135 = sext i32 %134 to i64
  %136 = getelementptr inbounds [0 x %struct.pg_enc2name], ptr @pg_enc2name_tbl, i64 0, i64 %135
  %137 = getelementptr inbounds nuw %struct.pg_enc2name, ptr %136, i32 0, i32 0
  %138 = load ptr, ptr %137, align 8
  %139 = load i32, ptr %9, align 4
  %140 = call i32 (ptr, ...) @errmsg_internal(ptr noundef @.str.34, ptr noundef %138, i32 noundef %139)
  call void @errfinish(ptr noundef @.str.3, i32 noundef 1065, ptr noundef @__func__.test_enc_setup)
  br label %141

141:                                              ; preds = %133, %131, %129
  br label %142

142:                                              ; preds = %141
  br label %143

143:                                              ; preds = %142
  br label %144

144:                                              ; preds = %143, %114
  store i32 0, ptr %4, align 4
  br label %145

145:                                              ; preds = %144, %18
  call void @llvm.lifetime.end.p0(i64 4, ptr %9) #13
  call void @llvm.lifetime.end.p0(i64 4, ptr %8) #13
  call void @llvm.lifetime.end.p0(i64 4, ptr %7) #13
  call void @llvm.lifetime.end.p0(i64 16, ptr %6) #13
  call void @llvm.lifetime.end.p0(i64 2, ptr %5) #13
  %146 = load i32, ptr %4, align 4
  switch i32 %146, label %152 [
    i32 0, label %147
    i32 4, label %148
  ]

147:                                              ; preds = %145
  br label %148

148:                                              ; preds = %147, %145
  %149 = load i32, ptr %3, align 4
  %150 = add i32 %149, 1
  store i32 %150, ptr %3, align 4
  br label %10, !llvm.loop !27

151:                                              ; preds = %13
  ret i64 0

152:                                              ; preds = %145
  unreachable
}