; Function Attrs: nounwind uwtable
define noundef i64 @test_enc_setup(ptr noundef readnone captures(none) %0) local_unnamed_addr #1 {
  %2 = alloca [2 x i8], align 1
  %3 = alloca [16 x i8], align 16
  %4 = getelementptr inbounds nuw i8, ptr %2, i64 1
  %5 = getelementptr inbounds nuw i8, ptr %3, i64 1
  br label %7

6:                                                ; preds = %54
  ret i64 0

7:                                                ; preds = %1, %54
  %indvars.iv = phi i64 [ 0, %1 ], [ %indvars.iv.next, %54 ]
  call void @llvm.lifetime.start.p0(i64 2, ptr nonnull %2) #18
  call void @llvm.lifetime.start.p0(i64 16, ptr nonnull %3) #18
  %8 = trunc nuw nsw i64 %indvars.iv to i32
  %9 = call i32 @pg_encoding_max_length(i32 noundef %8) #18
  %10 = icmp eq i32 %9, 1
  br i1 %10, label %54, label %11

11:                                               ; preds = %7
  call void @pg_encoding_set_invalid(i32 noundef %8, ptr noundef nonnull %2) #18
  %12 = call i64 @strnlen(ptr noundef nonnull dereferenceable(1) %2, i64 noundef 2) #20
  %13 = trunc i64 %12 to i32
  %.not = icmp eq i32 %13, 2
  br i1 %.not, label %20, label %14

14:                                               ; preds = %11
  %15 = call zeroext i1 @errstart(i32 noundef 19, ptr noundef null) #18
  br i1 %15, label %16, label %20

16:                                               ; preds = %14
  %17 = getelementptr inbounds nuw [0 x %struct.pg_enc2name], ptr @pg_enc2name_tbl, i64 0, i64 %indvars.iv
  %18 = load ptr, ptr %17, align 8
  %19 = call i32 (ptr, ...) @errmsg_internal(ptr noundef nonnull @.str.30, ptr noundef %18, i32 noundef %13) #18
  call void @errfinish(ptr noundef nonnull @.str.3, i32 noundef 1042, ptr noundef nonnull @__func__.test_enc_setup) #18
  br label %20

20:                                               ; preds = %14, %16, %11
  %21 = call i32 @pg_encoding_mblen(i32 noundef %8, ptr noundef nonnull %2) #18
  %.not29 = icmp eq i32 %21, 2
  br i1 %.not29, label %28, label %22

22:                                               ; preds = %20
  %23 = call zeroext i1 @errstart(i32 noundef 19, ptr noundef null) #18
  br i1 %23, label %24, label %28

24:                                               ; preds = %22
  %25 = getelementptr inbounds nuw [0 x %struct.pg_enc2name], ptr @pg_enc2name_tbl, i64 0, i64 %indvars.iv
  %26 = load ptr, ptr %25, align 8
  %27 = call i32 (ptr, ...) @errmsg_internal(ptr noundef nonnull @.str.31, ptr noundef %26, i32 noundef %21) #18
  call void @errfinish(ptr noundef nonnull @.str.3, i32 noundef 1047, ptr noundef nonnull @__func__.test_enc_setup) #18
  br label %28

28:                                               ; preds = %22, %24, %20
  %29 = call i32 @pg_encoding_verifymbstr(i32 noundef %8, ptr noundef nonnull %2, i32 noundef %13) #18
  %.not30 = icmp eq i32 %29, 0
  br i1 %.not30, label %36, label %30

30:                                               ; preds = %28
  %31 = call zeroext i1 @errstart(i32 noundef 19, ptr noundef null) #18
  br i1 %31, label %32, label %36

32:                                               ; preds = %30
  %33 = getelementptr inbounds nuw [0 x %struct.pg_enc2name], ptr @pg_enc2name_tbl, i64 0, i64 %indvars.iv
  %34 = load ptr, ptr %33, align 8
  %35 = call i32 (ptr, ...) @errmsg_internal(ptr noundef nonnull @.str.32, ptr noundef %34, i32 noundef %29) #18
  call void @errfinish(ptr noundef nonnull @.str.3, i32 noundef 1052, ptr noundef nonnull @__func__.test_enc_setup) #18
  br label %36

36:                                               ; preds = %30, %32, %28
  %37 = call i32 @pg_encoding_verifymbstr(i32 noundef %8, ptr noundef nonnull %2, i32 noundef 1) #18
  %.not31 = icmp eq i32 %37, 0
  br i1 %.not31, label %44, label %38

38:                                               ; preds = %36
  %39 = call zeroext i1 @errstart(i32 noundef 19, ptr noundef null) #18
  br i1 %39, label %40, label %44

40:                                               ; preds = %38
  %41 = getelementptr inbounds nuw [0 x %struct.pg_enc2name], ptr @pg_enc2name_tbl, i64 0, i64 %indvars.iv
  %42 = load ptr, ptr %41, align 8
  %43 = call i32 (ptr, ...) @errmsg_internal(ptr noundef nonnull @.str.33, ptr noundef %42, i32 noundef %37) #18
  call void @errfinish(ptr noundef nonnull @.str.3, i32 noundef 1057, ptr noundef nonnull @__func__.test_enc_setup) #18
  br label %44

44:                                               ; preds = %38, %40, %36
  call void @llvm.memset.p0.i64(ptr noundef nonnull align 16 dereferenceable(16) %3, i8 32, i64 16, i1 false)
  %45 = load i8, ptr %2, align 1
  store i8 %45, ptr %3, align 16
  %46 = load i8, ptr %4, align 1
  store i8 %46, ptr %5, align 1
  %47 = call i32 @pg_encoding_verifymbstr(i32 noundef %8, ptr noundef nonnull %3, i32 noundef 16) #18
  %.not32 = icmp eq i32 %47, 0
  br i1 %.not32, label %54, label %48

48:                                               ; preds = %44
  %49 = call zeroext i1 @errstart(i32 noundef 19, ptr noundef null) #18
  br i1 %49, label %50, label %54

50:                                               ; preds = %48
  %51 = getelementptr inbounds nuw [0 x %struct.pg_enc2name], ptr @pg_enc2name_tbl, i64 0, i64 %indvars.iv
  %52 = load ptr, ptr %51, align 8
  %53 = call i32 (ptr, ...) @errmsg_internal(ptr noundef nonnull @.str.34, ptr noundef %52, i32 noundef %47) #18
  call void @errfinish(ptr noundef nonnull @.str.3, i32 noundef 1065, ptr noundef nonnull @__func__.test_enc_setup) #18
  br label %54

54:                                               ; preds = %44, %50, %48, %7
  call void @llvm.lifetime.end.p0(i64 16, ptr nonnull %3) #18
  call void @llvm.lifetime.end.p0(i64 2, ptr nonnull %2) #18
  %indvars.iv.next = add nuw nsw i64 %indvars.iv, 1
  %exitcond.not = icmp eq i64 %indvars.iv.next, 42
  br i1 %exitcond.not, label %6, label %7, !llvm.loop !34
}